; Function Attrs: mustprogress uwtable
define void @_ZN5boost3log11v2_mt_posix4core10set_filterERKNS1_6filterE(ptr nocapture noundef nonnull readonly align 8 dereferenceable(8) %0, ptr nocapture noundef nonnull readonly align 8 dereferenceable(8) %1) local_unnamed_addr #4 align 2 personality ptr @__gxx_personality_v0 {
  %3 = load ptr, ptr %0, align 8, !tbaa !33
  %4 = tail call i32 @pthread_rwlock_wrlock(ptr noundef nonnull align 8 dereferenceable(56) %3) #21
  %5 = load ptr, ptr %0, align 8, !tbaa !33
  %6 = getelementptr inbounds nuw i8, ptr %5, i64 120
  %7 = load ptr, ptr %1, align 8, !tbaa !49
  %.not.i.i.i = icmp eq ptr %7, null
  br i1 %.not.i.i.i, label %_ZN5boost3log11v2_mt_posix3aux14light_functionIFbRKNS1_19attribute_value_setEEEC2ERKS8_.exit.i.i, label %8

8:                                                ; preds = %2
  %9 = getelementptr inbounds nuw i8, ptr %7, i64 8
  %10 = load ptr, ptr %9, align 8, !tbaa !47
  %11 = invoke noundef ptr %10(ptr noundef nonnull %7)
          to label %_ZN5boost3log11v2_mt_posix3aux14light_functionIFbRKNS1_19attribute_value_setEEEC2ERKS8_.exit.i.i unwind label %20

_ZN5boost3log11v2_mt_posix3aux14light_functionIFbRKNS1_19attribute_value_setEEEC2ERKS8_.exit.i.i: ; preds = %8, %2
  %storemerge.i.i.i = phi ptr [ null, %2 ], [ %11, %8 ]
  %12 = load ptr, ptr %6, align 8, !tbaa !49
  store ptr %storemerge.i.i.i, ptr %6, align 8, !tbaa !49
  %.not.i.i.i.i = icmp eq ptr %12, null
  br i1 %.not.i.i.i.i, label %_ZN5boost3log11v2_mt_posix6filteraSERKS2_.exit, label %13

13:                                               ; preds = %_ZN5boost3log11v2_mt_posix3aux14light_functionIFbRKNS1_19attribute_value_setEEEC2ERKS8_.exit.i.i
  %14 = getelementptr inbounds nuw i8, ptr %12, i64 16
  %15 = load ptr, ptr %14, align 8, !tbaa !48
  invoke void %15(ptr noundef nonnull %12)
          to label %_ZN5boost3log11v2_mt_posix6filteraSERKS2_.exit unwind label %16

16:                                               ; preds = %13
  %17 = landingpad { ptr, i32 }
          catch ptr null
  %18 = extractvalue { ptr, i32 } %17, 0
  tail call void @__clang_call_terminate(ptr %18) #22
  unreachable

_ZN5boost3log11v2_mt_posix6filteraSERKS2_.exit:   ; preds = %13, %_ZN5boost3log11v2_mt_posix3aux14light_functionIFbRKNS1_19attribute_value_setEEEC2ERKS8_.exit.i.i
  %19 = tail call i32 @pthread_rwlock_unlock(ptr noundef nonnull align 8 dereferenceable(56) %3) #21
  ret void

20:                                               ; preds = %8
  %21 = landingpad { ptr, i32 }
          cleanup
  %22 = tail call i32 @pthread_rwlock_unlock(ptr noundef nonnull align 8 dereferenceable(56) %3) #21
  resume { ptr, i32 } %21
}